target datalayout = "e-m:e-p270:32:32-p271:32:32-p272:64:64-i64:64-i128:128-f80:128-n8:16:32:64-S128"
target triple = "x86_64-pc-linux-gnu"

%struct.bitmap = type { ptr, i64 }

@.str = private unnamed_addr constant [27 x i8] c"size_t overflow: %lu * %lu\00", align 1

; Function Attrs: inlinehint nounwind uwtable
define internal i64 @st_mult(i64 noundef %0, i64 noundef %1) #3 {
  %3 = alloca i64, align 8
  %4 = alloca i64, align 8
  store i64 %0, ptr %3, align 8, !tbaa !4
  store i64 %1, ptr %4, align 8, !tbaa !4
  %5 = load i64, ptr %3, align 8, !tbaa !4
  %6 = icmp ne i64 %5, 0
  br i1 %6, label %7, label %15

7:                                                ; preds = %2
  %8 = load i64, ptr %4, align 8, !tbaa !4
  %9 = load i64, ptr %3, align 8, !tbaa !4
  %10 = udiv i64 -1, %9
  %11 = icmp ugt i64 %8, %10
  br i1 %11, label %12, label %15

12:                                               ; preds = %7
  %13 = load i64, ptr %3, align 8, !tbaa !4
  %14 = load i64, ptr %4, align 8, !tbaa !4
  call void (ptr, ...) @die(ptr noundef @.str, i64 noundef %13, i64 noundef %14) #9
  unreachable

15:                                               ; preds = %7, %2
  %16 = load i64, ptr %3, align 8, !tbaa !4
  %17 = load i64, ptr %4, align 8, !tbaa !4
  %18 = mul i64 %16, %17
  ret i64 %18
}

; Function Attrs: nounwind uwtable
define internal void @bitmap_grow(ptr noundef %0, i64 noundef %1) #0 {
  %3 = alloca ptr, align 8
  %4 = alloca i64, align 8
  %5 = alloca i64, align 8
  store ptr %0, ptr %3, align 8, !tbaa !8
  store i64 %1, ptr %4, align 8, !tbaa !4
  call void @llvm.lifetime.start.p0(i64 8, ptr %5) #8
  %6 = load ptr, ptr %3, align 8, !tbaa !8
  %7 = getelementptr inbounds nuw %struct.bitmap, ptr %6, i32 0, i32 1
  %8 = load i64, ptr %7, align 8, !tbaa !14
  store i64 %8, ptr %5, align 8, !tbaa !4
  br label %9

9:                                                ; preds = %2
  %10 = load i64, ptr %4, align 8, !tbaa !4
  %11 = load ptr, ptr %3, align 8, !tbaa !8
  %12 = getelementptr inbounds nuw %struct.bitmap, ptr %11, i32 0, i32 1
  %13 = load i64, ptr %12, align 8, !tbaa !14
  %14 = icmp ugt i64 %10, %13
  br i1 %14, label %15, label %48

15:                                               ; preds = %9
  %16 = load ptr, ptr %3, align 8, !tbaa !8
  %17 = getelementptr inbounds nuw %struct.bitmap, ptr %16, i32 0, i32 1
  %18 = load i64, ptr %17, align 8, !tbaa !14
  %19 = add i64 %18, 16
  %20 = mul i64 %19, 3
  %21 = udiv i64 %20, 2
  %22 = load i64, ptr %4, align 8, !tbaa !4
  %23 = icmp ult i64 %21, %22
  br i1 %23, label %24, label %28

24:                                               ; preds = %15
  %25 = load i64, ptr %4, align 8, !tbaa !4
  %26 = load ptr, ptr %3, align 8, !tbaa !8
  %27 = getelementptr inbounds nuw %struct.bitmap, ptr %26, i32 0, i32 1
  store i64 %25, ptr %27, align 8, !tbaa !14
  br label %37

28:                                               ; preds = %15
  %29 = load ptr, ptr %3, align 8, !tbaa !8
  %30 = getelementptr inbounds nuw %struct.bitmap, ptr %29, i32 0, i32 1
  %31 = load i64, ptr %30, align 8, !tbaa !14
  %32 = add i64 %31, 16
  %33 = mul i64 %32, 3
  %34 = udiv i64 %33, 2
  %35 = load ptr, ptr %3, align 8, !tbaa !8
  %36 = getelementptr inbounds nuw %struct.bitmap, ptr %35, i32 0, i32 1
  store i64 %34, ptr %36, align 8, !tbaa !14
  br label %37

37:                                               ; preds = %28, %24
  %38 = load ptr, ptr %3, align 8, !tbaa !8
  %39 = getelementptr inbounds nuw %struct.bitmap, ptr %38, i32 0, i32 0
  %40 = load ptr, ptr %39, align 8, !tbaa !11
  %41 = load ptr, ptr %3, align 8, !tbaa !8
  %42 = getelementptr inbounds nuw %struct.bitmap, ptr %41, i32 0, i32 1
  %43 = load i64, ptr %42, align 8, !tbaa !14
  %44 = call i64 @st_mult(i64 noundef 8, i64 noundef %43)
  %45 = call ptr @xrealloc(ptr noundef %40, i64 noundef %44)
  %46 = load ptr, ptr %3, align 8, !tbaa !8
  %47 = getelementptr inbounds nuw %struct.bitmap, ptr %46, i32 0, i32 0
  store ptr %45, ptr %47, align 8, !tbaa !11
  br label %48

48:                                               ; preds = %37, %9
  br label %49

49:                                               ; preds = %48
  br label %50

50:                                               ; preds = %49
  %51 = load ptr, ptr %3, align 8, !tbaa !8
  %52 = getelementptr inbounds nuw %struct.bitmap, ptr %51, i32 0, i32 0
  %53 = load ptr, ptr %52, align 8, !tbaa !11
  %54 = load i64, ptr %5, align 8, !tbaa !4
  %55 = getelementptr inbounds nuw i64, ptr %53, i64 %54
  %56 = load ptr, ptr %3, align 8, !tbaa !8
  %57 = getelementptr inbounds nuw %struct.bitmap, ptr %56, i32 0, i32 1
  %58 = load i64, ptr %57, align 8, !tbaa !14
  %59 = load i64, ptr %5, align 8, !tbaa !4
  %60 = sub i64 %58, %59
  %61 = mul i64 %60, 8
  call void @llvm.memset.p0.i64(ptr align 8 %55, i8 0, i64 %61, i1 false)
  call void @llvm.lifetime.end.p0(i64 8, ptr %5) #8
  ret void
}

; Function Attrs: nounwind uwtable
define dso_local void @bitmap_or(ptr noundef %0, ptr noundef %1) #0 {
  %3 = alloca ptr, align 8
  %4 = alloca ptr, align 8
  %5 = alloca i64, align 8
  store ptr %0, ptr %3, align 8, !tbaa !8
  store ptr %1, ptr %4, align 8, !tbaa !8
  call void @llvm.lifetime.start.p0(i64 8, ptr %5) #8
  %6 = load ptr, ptr %3, align 8, !tbaa !8
  %7 = load ptr, ptr %4, align 8, !tbaa !8
  %8 = getelementptr inbounds nuw %struct.bitmap, ptr %7, i32 0, i32 1
  %9 = load i64, ptr %8, align 8, !tbaa !14
  call void @bitmap_grow(ptr noundef %6, i64 noundef %9)
  store i64 0, ptr %5, align 8, !tbaa !4
  br label %10

10:                                               ; preds = %30, %2
  %11 = load i64, ptr %5, align 8, !tbaa !4
  %12 = load ptr, ptr %4, align 8, !tbaa !8
  %13 = getelementptr inbounds nuw %struct.bitmap, ptr %12, i32 0, i32 1
  %14 = load i64, ptr %13, align 8, !tbaa !14
  %15 = icmp ult i64 %11, %14
  br i1 %15, label %16, label %33

16:                                               ; preds = %10
  %17 = load ptr, ptr %4, align 8, !tbaa !8
  %18 = getelementptr inbounds nuw %struct.bitmap, ptr %17, i32 0, i32 0
  %19 = load ptr, ptr %18, align 8, !tbaa !11
  %20 = load i64, ptr %5, align 8, !tbaa !4
  %21 = getelementptr inbounds nuw i64, ptr %19, i64 %20
  %22 = load i64, ptr %21, align 8, !tbaa !4
  %23 = load ptr, ptr %3, align 8, !tbaa !8
  %24 = getelementptr inbounds nuw %struct.bitmap, ptr %23, i32 0, i32 0
  %25 = load ptr, ptr %24, align 8, !tbaa !11
  %26 = load i64, ptr %5, align 8, !tbaa !4
  %27 = getelementptr inbounds nuw i64, ptr %25, i64 %26
  %28 = load i64, ptr %27, align 8, !tbaa !4
  %29 = or i64 %28, %22
  store i64 %29, ptr %27, align 8, !tbaa !4
  br label %30

30:                                               ; preds = %16
  %31 = load i64, ptr %5, align 8, !tbaa !4
  %32 = add i64 %31, 1
  store i64 %32, ptr %5, align 8, !tbaa !4
  br label %10, !llvm.loop !22

33:                                               ; preds = %10
  call void @llvm.lifetime.end.p0(i64 8, ptr %5) #8
  ret void
}