; Function Attrs: nounwind uwtable
define dso_local void @bitmap_or(ptr noundef captures(none) %0, ptr noundef readonly captures(none) %1) local_unnamed_addr #0 {
  %3 = getelementptr inbounds nuw i8, ptr %1, i64 8
  %4 = load i64, ptr %3, align 8, !tbaa !11
  %5 = getelementptr inbounds nuw i8, ptr %0, i64 8
  %6 = load i64, ptr %5, align 8, !tbaa !11
  %7 = icmp ugt i64 %4, %6
  br i1 %7, label %8, label %._crit_edge.i

._crit_edge.i:                                    ; preds = %2
  %.pre.i = load ptr, ptr %0, align 8, !tbaa !4
  br label %bitmap_grow.exit

8:                                                ; preds = %2
  %9 = mul i64 %6, 3
  %10 = add i64 %9, 48
  %11 = lshr i64 %10, 1
  %..i = tail call i64 @llvm.umax.i64(i64 %11, i64 %4)
  store i64 %..i, ptr %5, align 8, !tbaa !11
  %12 = icmp ugt i64 %..i, 2305843009213693951
  br i1 %12, label %13, label %st_mult.exit.i

13:                                               ; preds = %8
  tail call void (ptr, ...) @die(ptr noundef nonnull @.str, i64 noundef 8, i64 noundef %..i) #14
  unreachable

st_mult.exit.i:                                   ; preds = %8
  %14 = load ptr, ptr %0, align 8, !tbaa !4
  %15 = shl nuw i64 %..i, 3
  %16 = tail call ptr @xrealloc(ptr noundef %14, i64 noundef %15) #13
  store ptr %16, ptr %0, align 8, !tbaa !4
  %.pre17.i = load i64, ptr %5, align 8, !tbaa !11
  br label %bitmap_grow.exit

bitmap_grow.exit:                                 ; preds = %._crit_edge.i, %st_mult.exit.i
  %17 = phi i64 [ %6, %._crit_edge.i ], [ %.pre17.i, %st_mult.exit.i ]
  %18 = phi ptr [ %.pre.i, %._crit_edge.i ], [ %16, %st_mult.exit.i ]
  %19 = getelementptr inbounds nuw i64, ptr %18, i64 %6
  %20 = sub i64 %17, %6
  %21 = shl i64 %20, 3
  tail call void @llvm.memset.p0.i64(ptr align 8 %19, i8 0, i64 %21, i1 false)
  %22 = load i64, ptr %3, align 8, !tbaa !11
  %.not = icmp eq i64 %22, 0
  br i1 %.not, label %._crit_edge, label %.lr.ph

.lr.ph:                                           ; preds = %bitmap_grow.exit
  %23 = load ptr, ptr %1, align 8, !tbaa !4
  %24 = load ptr, ptr %0, align 8, !tbaa !4
  br label %25

25:                                               ; preds = %.lr.ph, %25
  %.08 = phi i64 [ 0, %.lr.ph ], [ %31, %25 ]
  %26 = getelementptr inbounds nuw i64, ptr %23, i64 %.08
  %27 = load i64, ptr %26, align 8, !tbaa !12
  %28 = getelementptr inbounds nuw i64, ptr %24, i64 %.08
  %29 = load i64, ptr %28, align 8, !tbaa !12
  %30 = or i64 %29, %27
  store i64 %30, ptr %28, align 8, !tbaa !12
  %31 = add nuw i64 %.08, 1
  %32 = load i64, ptr %3, align 8, !tbaa !11
  %33 = icmp ult i64 %31, %32
  br i1 %33, label %25, label %._crit_edge, !llvm.loop !17

._crit_edge:                                      ; preds = %25, %bitmap_grow.exit
  ret void
}